target datalayout = "e-m:e-p270:32:32-p271:32:32-p272:64:64-i64:64-i128:128-f80:128-n8:16:32:64-S128"
target triple = "x86_64-pc-linux-gnu"

%class.InterfaceSortFilterModel = type { %class.QSortFilterProxyModel, i8, i8, i8, i8, i8, %class.QList, %class.QList.0 }
%class.QSortFilterProxyModel = type { %class.QAbstractProxyModel }
%class.QAbstractProxyModel = type { %class.QAbstractItemModel }
%class.QAbstractItemModel = type { %class.QObject }
%class.QObject = type { ptr, %class.QScopedPointer }
%class.QScopedPointer = type { ptr }
%class.QList = type { %struct.QArrayDataPointer }
%struct.QArrayDataPointer = type { ptr, ptr, i64 }
%class.QList.0 = type { %struct.QArrayDataPointer.3 }
%struct.QArrayDataPointer.3 = type { ptr, ptr, i64 }
%"class.QList<int>::const_iterator" = type { ptr }

; Function Attrs: mustprogress nounwind uwtable
define linkonce_odr noundef ptr @_ZNK17QArrayDataPointerIiE4dataEv(ptr noundef nonnull align 8 dereferenceable(24) %0) #2 comdat align 2 {
  %2 = alloca ptr, align 8
  store ptr %0, ptr %2, align 8
  %3 = load ptr, ptr %2, align 8
  %4 = getelementptr inbounds %struct.QArrayDataPointer, ptr %3, i32 0, i32 1
  %5 = load ptr, ptr %4, align 8
  ret ptr %5
}

; Function Attrs: mustprogress nounwind uwtable
define linkonce_odr noundef ptr @_ZNK17QArrayDataPointerIiE8constEndEv(ptr noundef nonnull align 8 dereferenceable(24) %0) #2 comdat align 2 {
  %2 = alloca ptr, align 8
  store ptr %0, ptr %2, align 8
  %3 = load ptr, ptr %2, align 8
  %4 = call noundef ptr @_ZNK17QArrayDataPointerIiE4dataEv(ptr noundef nonnull align 8 dereferenceable(24) %3) #12
  %5 = getelementptr inbounds %struct.QArrayDataPointer, ptr %3, i32 0, i32 2
  %6 = load i64, ptr %5, align 8
  %7 = getelementptr i32, ptr %4, i64 %6
  ret ptr %7
}

; Function Attrs: mustprogress nounwind uwtable
define linkonce_odr void @_ZN5QListIiE14const_iteratorC2EPKi(ptr noundef nonnull align 8 dereferenceable(8) %0, ptr noundef %1) unnamed_addr #2 comdat align 2 {
  %3 = alloca ptr, align 8
  %4 = alloca ptr, align 8
  store ptr %0, ptr %3, align 8
  store ptr %1, ptr %4, align 8
  %5 = load ptr, ptr %3, align 8
  %6 = getelementptr inbounds %"class.QList<int>::const_iterator", ptr %5, i32 0, i32 0
  %7 = load ptr, ptr %4, align 8
  store ptr %7, ptr %6, align 8
  ret void
}

; Function Attrs: mustprogress nounwind uwtable
define linkonce_odr noundef ptr @_ZNK17QArrayDataPointerIiE10constBeginEv(ptr noundef nonnull align 8 dereferenceable(24) %0) #2 comdat align 2 {
  %2 = alloca ptr, align 8
  store ptr %0, ptr %2, align 8
  %3 = load ptr, ptr %2, align 8
  %4 = call noundef ptr @_ZNK17QArrayDataPointerIiE4dataEv(ptr noundef nonnull align 8 dereferenceable(24) %3) #12
  ret ptr %4
}

; Function Attrs: mustprogress nounwind uwtable
define linkonce_odr noundef i64 @_ZNK5QListIiE14const_iteratormiES1_(ptr noundef nonnull align 8 dereferenceable(8) %0, ptr %1) #2 comdat align 2 {
  %3 = alloca %"class.QList<int>::const_iterator", align 8
  %4 = alloca ptr, align 8
  %5 = getelementptr inbounds %"class.QList<int>::const_iterator", ptr %3, i32 0, i32 0
  store ptr %1, ptr %5, align 8
  store ptr %0, ptr %4, align 8
  %6 = load ptr, ptr %4, align 8
  %7 = getelementptr inbounds %"class.QList<int>::const_iterator", ptr %6, i32 0, i32 0
  %8 = load ptr, ptr %7, align 8
  %9 = getelementptr inbounds %"class.QList<int>::const_iterator", ptr %3, i32 0, i32 0
  %10 = load ptr, ptr %9, align 8
  %11 = ptrtoint ptr %8 to i64
  %12 = ptrtoint ptr %10 to i64
  %13 = sub i64 %11, %12
  %14 = sdiv exact i64 %13, 4
  ret i64 %14
}

; Function Attrs: mustprogress nounwind uwtable
define linkonce_odr noundef nonnull align 4 dereferenceable(4) ptr @_ZNK5QListIiE14const_iteratordeEv(ptr noundef nonnull align 8 dereferenceable(8) %0) #2 comdat align 2 {
  %2 = alloca ptr, align 8
  store ptr %0, ptr %2, align 8
  %3 = load ptr, ptr %2, align 8
  %4 = getelementptr inbounds %"class.QList<int>::const_iterator", ptr %3, i32 0, i32 0
  %5 = load ptr, ptr %4, align 8
  ret ptr %5
}

; Function Attrs: mustprogress nounwind uwtable
define linkonce_odr noundef zeroext i1 @_ZNK5QListIiE14const_iteratorneES1_(ptr noundef nonnull align 8 dereferenceable(8) %0, ptr %1) #2 comdat align 2 {
  %3 = alloca %"class.QList<int>::const_iterator", align 8
  %4 = alloca ptr, align 8
  %5 = getelementptr inbounds %"class.QList<int>::const_iterator", ptr %3, i32 0, i32 0
  store ptr %1, ptr %5, align 8
  store ptr %0, ptr %4, align 8
  %6 = load ptr, ptr %4, align 8
  %7 = getelementptr inbounds %"class.QList<int>::const_iterator", ptr %6, i32 0, i32 0
  %8 = load ptr, ptr %7, align 8
  %9 = getelementptr inbounds %"class.QList<int>::const_iterator", ptr %3, i32 0, i32 0
  %10 = load ptr, ptr %9, align 8
  %11 = icmp ne ptr %8, %10
  ret i1 %11
}

; Function Attrs: mustprogress nounwind uwtable
define linkonce_odr noundef nonnull align 8 dereferenceable(8) ptr @_ZN5QListIiE14const_iteratorppEv(ptr noundef nonnull align 8 dereferenceable(8) %0) #2 comdat align 2 {
  %2 = alloca ptr, align 8
  store ptr %0, ptr %2, align 8
  %3 = load ptr, ptr %2, align 8
  %4 = getelementptr inbounds %"class.QList<int>::const_iterator", ptr %3, i32 0, i32 0
  %5 = load ptr, ptr %4, align 8
  %6 = getelementptr i32, ptr %5, i32 1
  store ptr %6, ptr %4, align 8
  ret ptr %3
}

; Function Attrs: mustprogress nounwind uwtable
define linkonce_odr ptr @_ZNK5QListIiE3endEv(ptr noundef nonnull align 8 dereferenceable(24) %0) #2 comdat align 2 personality ptr @__gxx_personality_v0 {
  %2 = alloca %"class.QList<int>::const_iterator", align 8
  %3 = alloca ptr, align 8
  store ptr %0, ptr %3, align 8
  %4 = load ptr, ptr %3, align 8
  %5 = getelementptr inbounds %class.QList, ptr %4, i32 0, i32 0
  %6 = call noundef ptr @_ZNK17QArrayDataPointerIiEptEv(ptr noundef nonnull align 8 dereferenceable(24) %5) #12
  %7 = call noundef ptr @_ZNK17QArrayDataPointerIiE8constEndEv(ptr noundef nonnull align 8 dereferenceable(24) %6) #12
  invoke void @_ZN5QListIiE14const_iteratorC2EPKi(ptr noundef nonnull align 8 dereferenceable(8) %2, ptr noundef %7)
          to label %8 unwind label %11

8:                                                ; preds = %1
  %9 = getelementptr inbounds %"class.QList<int>::const_iterator", ptr %2, i32 0, i32 0
  %10 = load ptr, ptr %9, align 8
  ret ptr %10

11:                                               ; preds = %1
  %12 = landingpad { ptr, i32 }
          catch ptr null
  %13 = extractvalue { ptr, i32 } %12, 0
  call void @__clang_call_terminate(ptr %13) #15
  unreachable
}

; Function Attrs: mustprogress uwtable
define linkonce_odr ptr @_ZNK5QListIiE14const_iteratormiIiEENSt9enable_ifIXsr3stdE13is_integral_vIT_EES1_E4typeES4_(ptr noundef nonnull align 8 dereferenceable(8) %0, i32 noundef %1) #0 comdat align 2 {
  %3 = alloca %"class.QList<int>::const_iterator", align 8
  %4 = alloca ptr, align 8
  %5 = alloca i32, align 4
  store ptr %0, ptr %4, align 8
  store i32 %1, ptr %5, align 4
  %6 = load ptr, ptr %4, align 8
  %7 = getelementptr inbounds %"class.QList<int>::const_iterator", ptr %6, i32 0, i32 0
  %8 = load ptr, ptr %7, align 8
  %9 = load i32, ptr %5, align 4
  %10 = sext i32 %9 to i64
  %11 = sub i64 0, %10
  %12 = getelementptr i32, ptr %8, i64 %11
  call void @_ZN5QListIiE14const_iteratorC2EPKi(ptr noundef nonnull align 8 dereferenceable(8) %3, ptr noundef %12)
  %13 = getelementptr inbounds %"class.QList<int>::const_iterator", ptr %3, i32 0, i32 0
  %14 = load ptr, ptr %13, align 8
  ret ptr %14
}

; Function Attrs: mustprogress uwtable
define linkonce_odr ptr @_ZNK5QListIiE14const_iteratorplIxEENSt9enable_ifIXsr3stdE13is_integral_vIT_EES1_E4typeES4_(ptr noundef nonnull align 8 dereferenceable(8) %0, i64 noundef %1) #0 comdat align 2 {
  %3 = alloca %"class.QList<int>::const_iterator", align 8
  %4 = alloca ptr, align 8
  %5 = alloca i64, align 8
  store ptr %0, ptr %4, align 8
  store i64 %1, ptr %5, align 8
  %6 = load ptr, ptr %4, align 8
  %7 = getelementptr inbounds %"class.QList<int>::const_iterator", ptr %6, i32 0, i32 0
  %8 = load ptr, ptr %7, align 8
  %9 = load i64, ptr %5, align 8
  %10 = getelementptr i32, ptr %8, i64 %9
  call void @_ZN5QListIiE14const_iteratorC2EPKi(ptr noundef nonnull align 8 dereferenceable(8) %3, ptr noundef %10)
  %11 = getelementptr inbounds %"class.QList<int>::const_iterator", ptr %3, i32 0, i32 0
  %12 = load ptr, ptr %11, align 8
  ret ptr %12
}

; Function Attrs: mustprogress nounwind uwtable
define linkonce_odr ptr @_ZNK5QListIiE5beginEv(ptr noundef nonnull align 8 dereferenceable(24) %0) #2 comdat align 2 personality ptr @__gxx_personality_v0 {
  %2 = alloca %"class.QList<int>::const_iterator", align 8
  %3 = alloca ptr, align 8
  store ptr %0, ptr %3, align 8
  %4 = load ptr, ptr %3, align 8
  %5 = getelementptr inbounds %class.QList, ptr %4, i32 0, i32 0
  %6 = call noundef ptr @_ZNK17QArrayDataPointerIiEptEv(ptr noundef nonnull align 8 dereferenceable(24) %5) #12
  %7 = call noundef ptr @_ZNK17QArrayDataPointerIiE10constBeginEv(ptr noundef nonnull align 8 dereferenceable(24) %6) #12
  invoke void @_ZN5QListIiE14const_iteratorC2EPKi(ptr noundef nonnull align 8 dereferenceable(8) %2, ptr noundef %7)
          to label %8 unwind label %11

8:                                                ; preds = %1
  %9 = getelementptr inbounds %"class.QList<int>::const_iterator", ptr %2, i32 0, i32 0
  %10 = load ptr, ptr %9, align 8
  ret ptr %10

11:                                               ; preds = %1
  %12 = landingpad { ptr, i32 }
          catch ptr null
  %13 = extractvalue { ptr, i32 } %12, 0
  call void @__clang_call_terminate(ptr %13) #15
  unreachable
}

; Function Attrs: mustprogress nounwind uwtable
define linkonce_odr noundef nonnull align 8 dereferenceable(8) ptr @_Z4qMaxIxERKT_S2_S2_(ptr noundef nonnull align 8 dereferenceable(8) %0, ptr noundef nonnull align 8 dereferenceable(8) %1) #2 comdat {
  %3 = alloca ptr, align 8
  %4 = alloca ptr, align 8
  store ptr %0, ptr %3, align 8
  store ptr %1, ptr %4, align 8
  %5 = load ptr, ptr %3, align 8
  %6 = load i64, ptr %5, align 8
  %7 = load ptr, ptr %4, align 8
  %8 = load i64, ptr %7, align 8
  %9 = icmp slt i64 %6, %8
  br i1 %9, label %10, label %12

10:                                               ; preds = %2
  %11 = load ptr, ptr %4, align 8
  br label %14

12:                                               ; preds = %2
  %13 = load ptr, ptr %3, align 8
  br label %14

14:                                               ; preds = %12, %10
  %15 = phi ptr [ %11, %10 ], [ %13, %12 ]
  ret ptr %15
}

; Function Attrs: mustprogress nounwind uwtable
define linkonce_odr noundef i64 @_ZN9QtPrivate7indexOfIiiEExRK5QListIT_ERKT0_x(ptr noundef nonnull align 8 dereferenceable(24) %0, ptr noundef nonnull align 4 dereferenceable(4) %1, i64 noundef %2) #2 comdat personality ptr @__gxx_personality_v0 {
  %4 = alloca i64, align 8
  %5 = alloca ptr, align 8
  %6 = alloca ptr, align 8
  %7 = alloca i64, align 8
  %8 = alloca i64, align 8
  %9 = alloca i64, align 8
  %10 = alloca %"class.QList<int>::const_iterator", align 8
  %11 = alloca %"class.QList<int>::const_iterator", align 8
  %12 = alloca %"class.QList<int>::const_iterator", align 8
  %13 = alloca %"class.QList<int>::const_iterator", align 8
  %14 = alloca %"class.QList<int>::const_iterator", align 8
  %15 = alloca %"class.QList<int>::const_iterator", align 8
  store ptr %0, ptr %5, align 8
  store ptr %1, ptr %6, align 8
  store i64 %2, ptr %7, align 8
  %16 = load i64, ptr %7, align 8
  %17 = icmp slt i64 %16, 0
  br i1 %17, label %18, label %25

18:                                               ; preds = %3
  %19 = load i64, ptr %7, align 8
  %20 = load ptr, ptr %5, align 8
  %21 = call noundef i64 @_ZNK5QListIiE4sizeEv(ptr noundef nonnull align 8 dereferenceable(24) %20) #12
  %22 = add i64 %19, %21
  store i64 %22, ptr %8, align 8
  store i64 0, ptr %9, align 8
  %23 = call noundef nonnull align 8 dereferenceable(8) ptr @_Z4qMaxIxERKT_S2_S2_(ptr noundef nonnull align 8 dereferenceable(8) %8, ptr noundef nonnull align 8 dereferenceable(8) %9)
  %24 = load i64, ptr %23, align 8
  store i64 %24, ptr %7, align 8
  br label %25

25:                                               ; preds = %18, %3
  %26 = load i64, ptr %7, align 8
  %27 = load ptr, ptr %5, align 8
  %28 = call noundef i64 @_ZNK5QListIiE4sizeEv(ptr noundef nonnull align 8 dereferenceable(24) %27) #12
  %29 = icmp slt i64 %26, %28
  br i1 %29, label %30, label %67

30:                                               ; preds = %25
  %31 = load ptr, ptr %5, align 8
  %32 = call ptr @_ZNK5QListIiE5beginEv(ptr noundef nonnull align 8 dereferenceable(24) %31) #12
  %33 = getelementptr inbounds %"class.QList<int>::const_iterator", ptr %12, i32 0, i32 0
  store ptr %32, ptr %33, align 8
  %34 = load i64, ptr %7, align 8
  %35 = invoke ptr @_ZNK5QListIiE14const_iteratorplIxEENSt9enable_ifIXsr3stdE13is_integral_vIT_EES1_E4typeES4_(ptr noundef nonnull align 8 dereferenceable(8) %12, i64 noundef %34)
          to label %36 unwind label %70

36:                                               ; preds = %30
  %37 = getelementptr inbounds %"class.QList<int>::const_iterator", ptr %11, i32 0, i32 0
  store ptr %35, ptr %37, align 8
  %38 = invoke ptr @_ZNK5QListIiE14const_iteratormiIiEENSt9enable_ifIXsr3stdE13is_integral_vIT_EES1_E4typeES4_(ptr noundef nonnull align 8 dereferenceable(8) %11, i32 noundef 1)
          to label %39 unwind label %70

39:                                               ; preds = %36
  %40 = getelementptr inbounds %"class.QList<int>::const_iterator", ptr %10, i32 0, i32 0
  store ptr %38, ptr %40, align 8
  %41 = load ptr, ptr %5, align 8
  %42 = call ptr @_ZNK5QListIiE3endEv(ptr noundef nonnull align 8 dereferenceable(24) %41) #12
  %43 = getelementptr inbounds %"class.QList<int>::const_iterator", ptr %13, i32 0, i32 0
  store ptr %42, ptr %43, align 8
  br label %44

44:                                               ; preds = %65, %39
  %45 = invoke noundef nonnull align 8 dereferenceable(8) ptr @_ZN5QListIiE14const_iteratorppEv(ptr noundef nonnull align 8 dereferenceable(8) %10)
          to label %46 unwind label %70

46:                                               ; preds = %44
  call void @llvm.memcpy.p0.p0.i64(ptr align 8 %14, ptr align 8 %13, i64 8, i1 false)
  %47 = getelementptr inbounds %"class.QList<int>::const_iterator", ptr %14, i32 0, i32 0
  %48 = load ptr, ptr %47, align 8
  %49 = call noundef zeroext i1 @_ZNK5QListIiE14const_iteratorneES1_(ptr noundef nonnull align 8 dereferenceable(8) %45, ptr %48)
  br i1 %49, label %50, label %66

50:                                               ; preds = %46
  %51 = invoke noundef nonnull align 4 dereferenceable(4) ptr @_ZNK5QListIiE14const_iteratordeEv(ptr noundef nonnull align 8 dereferenceable(8) %10)
          to label %52 unwind label %70

52:                                               ; preds = %50
  %53 = load i32, ptr %51, align 4
  %54 = load ptr, ptr %6, align 8
  %55 = load i32, ptr %54, align 4
  %56 = icmp eq i32 %53, %55
  br i1 %56, label %57, label %65

57:                                               ; preds = %52
  %58 = load ptr, ptr %5, align 8
  %59 = call ptr @_ZNK5QListIiE5beginEv(ptr noundef nonnull align 8 dereferenceable(24) %58) #12
  %60 = getelementptr inbounds %"class.QList<int>::const_iterator", ptr %15, i32 0, i32 0
  store ptr %59, ptr %60, align 8
  %61 = getelementptr inbounds %"class.QList<int>::const_iterator", ptr %15, i32 0, i32 0
  %62 = load ptr, ptr %61, align 8
  %63 = invoke noundef i64 @_ZNK5QListIiE14const_iteratormiES1_(ptr noundef nonnull align 8 dereferenceable(8) %10, ptr %62)
          to label %64 unwind label %70

64:                                               ; preds = %57
  store i64 %63, ptr %4, align 8
  br label %68

65:                                               ; preds = %52
  br label %44, !llvm.loop !11

66:                                               ; preds = %46
  br label %67

67:                                               ; preds = %66, %25
  store i64 -1, ptr %4, align 8
  br label %68

68:                                               ; preds = %67, %64
  %69 = load i64, ptr %4, align 8
  ret i64 %69

70:                                               ; preds = %57, %50, %44, %36, %30
  %71 = landingpad { ptr, i32 }
          catch ptr null
  %72 = extractvalue { ptr, i32 } %71, 0
  call void @__clang_call_terminate(ptr %72) #15
  unreachable
}

; Function Attrs: noreturn nounwind uwtable
define linkonce_odr hidden void @__clang_call_terminate(ptr noundef %0) #5 comdat {
  %2 = call ptr @__cxa_begin_catch(ptr %0) #12
  call void @_ZSt9terminatev() #15
  unreachable
}

; Function Attrs: mustprogress nounwind uwtable
define linkonce_odr noundef i64 @_ZNK23QListSpecialMethodsBaseIiE7indexOfIiEExRKT_x(ptr noundef nonnull align 1 dereferenceable(1) %0, ptr noundef nonnull align 4 dereferenceable(4) %1, i64 noundef %2) #2 comdat align 2 {
  %4 = alloca ptr, align 8
  %5 = alloca ptr, align 8
  %6 = alloca i64, align 8
  store ptr %0, ptr %4, align 8
  store ptr %1, ptr %5, align 8
  store i64 %2, ptr %6, align 8
  %7 = load ptr, ptr %4, align 8
  %8 = call noundef ptr @_ZNK23QListSpecialMethodsBaseIiE4selfEv(ptr noundef nonnull align 1 dereferenceable(1) %7)
  %9 = load ptr, ptr %5, align 8
  %10 = load i64, ptr %6, align 8
  %11 = call noundef i64 @_ZN9QtPrivate7indexOfIiiEExRK5QListIT_ERKT0_x(ptr noundef nonnull align 8 dereferenceable(24) %8, ptr noundef nonnull align 4 dereferenceable(4) %9, i64 noundef %10) #12
  ret i64 %11
}

; Function Attrs: mustprogress nounwind uwtable
define linkonce_odr noundef ptr @_ZNK23QListSpecialMethodsBaseIiE4selfEv(ptr noundef nonnull align 1 dereferenceable(1) %0) #2 comdat align 2 {
  %2 = alloca ptr, align 8
  store ptr %0, ptr %2, align 8
  %3 = load ptr, ptr %2, align 8
  ret ptr %3
}

; Function Attrs: mustprogress nounwind uwtable
define linkonce_odr noundef ptr @_ZNK17QArrayDataPointerIiEptEv(ptr noundef nonnull align 8 dereferenceable(24) %0) #2 comdat align 2 {
  %2 = alloca ptr, align 8
  store ptr %0, ptr %2, align 8
  %3 = load ptr, ptr %2, align 8
  ret ptr %3
}

; Function Attrs: mustprogress nounwind uwtable
define linkonce_odr noundef zeroext i1 @_ZNK23QListSpecialMethodsBaseIiE8containsIiEEbRKT_(ptr noundef nonnull align 1 dereferenceable(1) %0, ptr noundef nonnull align 4 dereferenceable(4) %1) #2 comdat align 2 personality ptr @__gxx_personality_v0 {
  %3 = alloca ptr, align 8
  %4 = alloca ptr, align 8
  store ptr %0, ptr %3, align 8
  store ptr %1, ptr %4, align 8
  %5 = load ptr, ptr %3, align 8
  %6 = invoke noundef ptr @_ZNK23QListSpecialMethodsBaseIiE4selfEv(ptr noundef nonnull align 1 dereferenceable(1) %5)
          to label %7 unwind label %11

7:                                                ; preds = %2
  %8 = load ptr, ptr %4, align 8
  %9 = call noundef i64 @_ZNK23QListSpecialMethodsBaseIiE7indexOfIiEExRKT_x(ptr noundef nonnull align 1 dereferenceable(1) %6, ptr noundef nonnull align 4 dereferenceable(4) %8, i64 noundef 0) #12
  %10 = icmp ne i64 %9, -1
  ret i1 %10

11:                                               ; preds = %2
  %12 = landingpad { ptr, i32 }
          catch ptr null
  %13 = extractvalue { ptr, i32 } %12, 0
  call void @__clang_call_terminate(ptr %13) #15
  unreachable
}

; Function Attrs: mustprogress nounwind uwtable
define linkonce_odr noundef i64 @_ZNK5QListIiE4sizeEv(ptr noundef nonnull align 8 dereferenceable(24) %0) #2 comdat align 2 {
  %2 = alloca ptr, align 8
  store ptr %0, ptr %2, align 8
  %3 = load ptr, ptr %2, align 8
  %4 = getelementptr inbounds %class.QList, ptr %3, i32 0, i32 0
  %5 = call noundef ptr @_ZNK17QArrayDataPointerIiEptEv(ptr noundef nonnull align 8 dereferenceable(24) %4) #12
  %6 = getelementptr inbounds %struct.QArrayDataPointer, ptr %5, i32 0, i32 2
  %7 = load i64, ptr %6, align 8
  ret i64 %7
}

; Function Attrs: mustprogress nounwind uwtable
define noundef zeroext i1 @_ZNK24InterfaceSortFilterModel20isInterfaceTypeShownEi(ptr noundef nonnull align 8 dereferenceable(72) %0, i32 noundef %1) #2 align 2 {
  %3 = alloca ptr, align 8
  %4 = alloca i32, align 4
  %5 = alloca i8, align 1
  store ptr %0, ptr %3, align 8
  store i32 %1, ptr %4, align 4
  %6 = load ptr, ptr %3, align 8
  store i8 0, ptr %5, align 1
  %7 = getelementptr inbounds %class.InterfaceSortFilterModel, ptr %6, i32 0, i32 6
  %8 = call noundef i64 @_ZNK5QListIiE4sizeEv(ptr noundef nonnull align 8 dereferenceable(24) %7) #12
  %9 = icmp eq i64 %8, 0
  br i1 %9, label %10, label %11

10:                                               ; preds = %2
  store i8 1, ptr %5, align 1
  br label %16

11:                                               ; preds = %2
  %12 = getelementptr inbounds %class.InterfaceSortFilterModel, ptr %6, i32 0, i32 6
  %13 = call noundef zeroext i1 @_ZNK23QListSpecialMethodsBaseIiE8containsIiEEbRKT_(ptr noundef nonnull align 1 dereferenceable(1) %12, ptr noundef nonnull align 4 dereferenceable(4) %4) #12
  br i1 %13, label %15, label %14

14:                                               ; preds = %11
  store i8 1, ptr %5, align 1
  br label %15

15:                                               ; preds = %14, %11
  br label %16

16:                                               ; preds = %15, %10
  %17 = getelementptr inbounds %class.InterfaceSortFilterModel, ptr %6, i32 0, i32 3
  %18 = load i8, ptr %17, align 2
  %19 = trunc i8 %18 to i1
  br i1 %19, label %20, label %23

20:                                               ; preds = %16
  %21 = load i8, ptr %5, align 1
  %22 = trunc i8 %21 to i1
  br i1 %22, label %23, label %32

23:                                               ; preds = %20, %16
  %24 = getelementptr inbounds %class.InterfaceSortFilterModel, ptr %6, i32 0, i32 3
  %25 = load i8, ptr %24, align 2
  %26 = trunc i8 %25 to i1
  br i1 %26, label %30, label %27

27:                                               ; preds = %23
  %28 = load i8, ptr %5, align 1
  %29 = trunc i8 %28 to i1
  br label %30

30:                                               ; preds = %27, %23
  %31 = phi i1 [ false, %23 ], [ %29, %27 ]
  br label %32

32:                                               ; preds = %30, %20
  %33 = phi i1 [ true, %20 ], [ %31, %30 ]
  ret i1 %33
}